; Function Attrs: mustprogress uwtable
define internal fastcc void @_ZN12_GLOBAL__N_19ParamNameB5cxx11ERKN7testing13TestParamInfoINS_5ParamEEE(ptr noalias sret(%"class.std::__cxx11::basic_string") align 8 %agg.result, ptr nocapture noundef nonnull readonly align 8 dereferenceable(32) %info) unnamed_addr #4 personality ptr @__gxx_personality_v0 {
entry:
  %name = alloca %"class.std::__cxx11::basic_string", align 8
  %ref.tmp = alloca %"class.absl::AlphaNum", align 8
  %ref.tmp1 = alloca %"class.absl::AlphaNum", align 8
  %ref.tmp2 = alloca %"struct.absl::strings_internal::AlphaNumBuffer", align 8
  %ref.tmp4 = alloca [3 x %"struct.std::pair"], align 8
  store i64 7, ptr %ref.tmp, align 8
  %0 = getelementptr inbounds i8, ptr %ref.tmp, i64 8
  store ptr @.str.59, ptr %0, align 8
  %1 = load double, ptr %info, align 8
  %call1.i = call noundef i64 @_ZN4absl16numbers_internal17SixDigitsToBufferEdPc(double noundef %1, ptr noundef nonnull %ref.tmp2)
  %size.i = getelementptr inbounds i8, ptr %ref.tmp2, i64 16
  store i64 %call1.i, ptr %size.i, align 8, !alias.scope !59
  store i64 %call1.i, ptr %ref.tmp1, align 8
  %_M_str.i.i = getelementptr inbounds i8, ptr %ref.tmp1, i64 8
  store ptr %ref.tmp2, ptr %_M_str.i.i, align 8
  call void @_ZN4absl6StrCatB5cxx11ERKNS_8AlphaNumES2_(ptr nonnull sret(%"class.std::__cxx11::basic_string") align 8 %name, ptr noundef nonnull align 8 dereferenceable(48) %ref.tmp, ptr noundef nonnull align 8 dereferenceable(48) %ref.tmp1)
  %call = call { i64, ptr } @_ZNKSt7__cxx1112basic_stringIcSt11char_traitsIcESaIcEEcvSt17basic_string_viewIcS2_EEv(ptr noundef nonnull align 8 dereferenceable(32) %name) #32
  %2 = extractvalue { i64, ptr } %call, 0
  %3 = extractvalue { i64, ptr } %call, 1
  store i64 1, ptr %ref.tmp4, align 8
  %_M_str.i.i2 = getelementptr inbounds i8, ptr %ref.tmp4, i64 8
  store ptr @.str.60, ptr %_M_str.i.i2, align 8
  %second.i = getelementptr inbounds i8, ptr %ref.tmp4, i64 16
  store i64 1, ptr %second.i, align 8
  %_M_str.i2.i = getelementptr inbounds i8, ptr %ref.tmp4, i64 24
  store ptr @.str.61, ptr %_M_str.i2.i, align 8
  %arrayinit.element = getelementptr inbounds i8, ptr %ref.tmp4, i64 32
  store i64 1, ptr %arrayinit.element, align 8
  %_M_str.i.i4 = getelementptr inbounds i8, ptr %ref.tmp4, i64 40
  store ptr @.str.62, ptr %_M_str.i.i4, align 8
  %second.i5 = getelementptr inbounds i8, ptr %ref.tmp4, i64 48
  store i64 1, ptr %second.i5, align 8
  %_M_str.i2.i7 = getelementptr inbounds i8, ptr %ref.tmp4, i64 56
  store ptr @.str.61, ptr %_M_str.i2.i7, align 8
  %arrayinit.element6 = getelementptr inbounds i8, ptr %ref.tmp4, i64 64
  store i64 1, ptr %arrayinit.element6, align 8
  %_M_str.i.i9 = getelementptr inbounds i8, ptr %ref.tmp4, i64 72
  store ptr @.str.63, ptr %_M_str.i.i9, align 8
  %second.i10 = getelementptr inbounds i8, ptr %ref.tmp4, i64 80
  store i64 1, ptr %second.i10, align 8
  %_M_str.i2.i12 = getelementptr inbounds i8, ptr %ref.tmp4, i64 88
  store ptr @.str.61, ptr %_M_str.i2.i12, align 8
  invoke void @_ZN4absl13StrReplaceAllB5cxx11ESt17basic_string_viewIcSt11char_traitsIcEESt16initializer_listISt4pairIS3_S3_EE(ptr sret(%"class.std::__cxx11::basic_string") align 8 %agg.result, i64 %2, ptr %3, ptr nonnull %ref.tmp4, i64 3)
          to label %invoke.cont8 unwind label %lpad

invoke.cont8:                                     ; preds = %entry
  call void @_ZNSt7__cxx1112basic_stringIcSt11char_traitsIcESaIcEED1Ev(ptr noundef nonnull align 8 dereferenceable(32) %name) #32
  ret void

lpad:                                             ; preds = %entry
  %4 = landingpad { ptr, i32 }
          cleanup
  call void @_ZNSt7__cxx1112basic_stringIcSt11char_traitsIcESaIcEED1Ev(ptr noundef nonnull align 8 dereferenceable(32) %name) #32
  resume { ptr, i32 } %4
}